target datalayout = "e-m:e-p270:32:32-p271:32:32-p272:64:64-i64:64-i128:128-f80:128-n8:16:32:64-S128"
target triple = "x86_64-pc-linux-gnu"

%struct.BrotliDecoderStateStruct = type { i32, i32, %struct.BrotliBitReader, ptr, ptr, ptr, %union.anon, i64, i32, i32, i32, i32, i32, i32, [4 x i32], i32, i32, ptr, ptr, ptr, ptr, ptr, ptr, %struct.HuffmanTreeGroup, %struct.HuffmanTreeGroup, %struct.HuffmanTreeGroup, ptr, ptr, i32, i32, [3 x i64], i64, [3 x i64], [6 x i64], i64, i64, i64, ptr, ptr, i64, i64, i64, [65 x i32], i32, i32, i8, ptr, ptr, ptr, i64, i32, i32, i32, i32, i32, i32, i64, ptr, ptr, ptr, ptr, [8 x i32], %union.anon.0 }
%struct.BrotliBitReader = type { i64, i64, ptr, ptr, ptr }
%union.anon = type { i64 }
%struct.HuffmanTreeGroup = type { ptr, ptr, i16, i16, i16 }
%union.anon.0 = type { %struct.BrotliMetablockBodyArena }
%struct.BrotliMetablockBodyArena = type { [544 x i8], [544 x i64] }

; Function Attrs: nounwind uwtable
define hidden void @BrotliDecoderStateCleanupAfterMetablock(ptr noundef %0) #0 {
  %2 = alloca ptr, align 8
  store ptr %0, ptr %2, align 8, !tbaa !3
  %3 = load ptr, ptr %2, align 8, !tbaa !3
  %4 = getelementptr inbounds nuw %struct.BrotliDecoderStateStruct, ptr %3, i32 0, i32 4
  %5 = load ptr, ptr %4, align 8, !tbaa !19
  %6 = load ptr, ptr %2, align 8, !tbaa !3
  %7 = getelementptr inbounds nuw %struct.BrotliDecoderStateStruct, ptr %6, i32 0, i32 5
  %8 = load ptr, ptr %7, align 8, !tbaa !20
  %9 = load ptr, ptr %2, align 8, !tbaa !3
  %10 = getelementptr inbounds nuw %struct.BrotliDecoderStateStruct, ptr %9, i32 0, i32 58
  %11 = load ptr, ptr %10, align 8, !tbaa !40
  call void %5(ptr noundef %8, ptr noundef %11)
  %12 = load ptr, ptr %2, align 8, !tbaa !3
  %13 = getelementptr inbounds nuw %struct.BrotliDecoderStateStruct, ptr %12, i32 0, i32 58
  store ptr null, ptr %13, align 8, !tbaa !40
  %14 = load ptr, ptr %2, align 8, !tbaa !3
  %15 = getelementptr inbounds nuw %struct.BrotliDecoderStateStruct, ptr %14, i32 0, i32 4
  %16 = load ptr, ptr %15, align 8, !tbaa !19
  %17 = load ptr, ptr %2, align 8, !tbaa !3
  %18 = getelementptr inbounds nuw %struct.BrotliDecoderStateStruct, ptr %17, i32 0, i32 5
  %19 = load ptr, ptr %18, align 8, !tbaa !20
  %20 = load ptr, ptr %2, align 8, !tbaa !3
  %21 = getelementptr inbounds nuw %struct.BrotliDecoderStateStruct, ptr %20, i32 0, i32 57
  %22 = load ptr, ptr %21, align 8, !tbaa !39
  call void %16(ptr noundef %19, ptr noundef %22)
  %23 = load ptr, ptr %2, align 8, !tbaa !3
  %24 = getelementptr inbounds nuw %struct.BrotliDecoderStateStruct, ptr %23, i32 0, i32 57
  store ptr null, ptr %24, align 8, !tbaa !39
  %25 = load ptr, ptr %2, align 8, !tbaa !3
  %26 = getelementptr inbounds nuw %struct.BrotliDecoderStateStruct, ptr %25, i32 0, i32 4
  %27 = load ptr, ptr %26, align 8, !tbaa !19
  %28 = load ptr, ptr %2, align 8, !tbaa !3
  %29 = getelementptr inbounds nuw %struct.BrotliDecoderStateStruct, ptr %28, i32 0, i32 5
  %30 = load ptr, ptr %29, align 8, !tbaa !20
  %31 = load ptr, ptr %2, align 8, !tbaa !3
  %32 = getelementptr inbounds nuw %struct.BrotliDecoderStateStruct, ptr %31, i32 0, i32 37
  %33 = load ptr, ptr %32, align 8, !tbaa !41
  call void %27(ptr noundef %30, ptr noundef %33)
  %34 = load ptr, ptr %2, align 8, !tbaa !3
  %35 = getelementptr inbounds nuw %struct.BrotliDecoderStateStruct, ptr %34, i32 0, i32 37
  store ptr null, ptr %35, align 8, !tbaa !41
  %36 = load ptr, ptr %2, align 8, !tbaa !3
  %37 = getelementptr inbounds nuw %struct.BrotliDecoderStateStruct, ptr %36, i32 0, i32 4
  %38 = load ptr, ptr %37, align 8, !tbaa !19
  %39 = load ptr, ptr %2, align 8, !tbaa !3
  %40 = getelementptr inbounds nuw %struct.BrotliDecoderStateStruct, ptr %39, i32 0, i32 5
  %41 = load ptr, ptr %40, align 8, !tbaa !20
  %42 = load ptr, ptr %2, align 8, !tbaa !3
  %43 = getelementptr inbounds nuw %struct.BrotliDecoderStateStruct, ptr %42, i32 0, i32 23
  %44 = getelementptr inbounds nuw %struct.HuffmanTreeGroup, ptr %43, i32 0, i32 0
  %45 = load ptr, ptr %44, align 8, !tbaa !45
  call void %38(ptr noundef %41, ptr noundef %45)
  %46 = load ptr, ptr %2, align 8, !tbaa !3
  %47 = getelementptr inbounds nuw %struct.BrotliDecoderStateStruct, ptr %46, i32 0, i32 23
  %48 = getelementptr inbounds nuw %struct.HuffmanTreeGroup, ptr %47, i32 0, i32 0
  store ptr null, ptr %48, align 8, !tbaa !45
  %49 = load ptr, ptr %2, align 8, !tbaa !3
  %50 = getelementptr inbounds nuw %struct.BrotliDecoderStateStruct, ptr %49, i32 0, i32 4
  %51 = load ptr, ptr %50, align 8, !tbaa !19
  %52 = load ptr, ptr %2, align 8, !tbaa !3
  %53 = getelementptr inbounds nuw %struct.BrotliDecoderStateStruct, ptr %52, i32 0, i32 5
  %54 = load ptr, ptr %53, align 8, !tbaa !20
  %55 = load ptr, ptr %2, align 8, !tbaa !3
  %56 = getelementptr inbounds nuw %struct.BrotliDecoderStateStruct, ptr %55, i32 0, i32 24
  %57 = getelementptr inbounds nuw %struct.HuffmanTreeGroup, ptr %56, i32 0, i32 0
  %58 = load ptr, ptr %57, align 8, !tbaa !47
  call void %51(ptr noundef %54, ptr noundef %58)
  %59 = load ptr, ptr %2, align 8, !tbaa !3
  %60 = getelementptr inbounds nuw %struct.BrotliDecoderStateStruct, ptr %59, i32 0, i32 24
  %61 = getelementptr inbounds nuw %struct.HuffmanTreeGroup, ptr %60, i32 0, i32 0
  store ptr null, ptr %61, align 8, !tbaa !47
  %62 = load ptr, ptr %2, align 8, !tbaa !3
  %63 = getelementptr inbounds nuw %struct.BrotliDecoderStateStruct, ptr %62, i32 0, i32 4
  %64 = load ptr, ptr %63, align 8, !tbaa !19
  %65 = load ptr, ptr %2, align 8, !tbaa !3
  %66 = getelementptr inbounds nuw %struct.BrotliDecoderStateStruct, ptr %65, i32 0, i32 5
  %67 = load ptr, ptr %66, align 8, !tbaa !20
  %68 = load ptr, ptr %2, align 8, !tbaa !3
  %69 = getelementptr inbounds nuw %struct.BrotliDecoderStateStruct, ptr %68, i32 0, i32 25
  %70 = getelementptr inbounds nuw %struct.HuffmanTreeGroup, ptr %69, i32 0, i32 0
  %71 = load ptr, ptr %70, align 8, !tbaa !49
  call void %64(ptr noundef %67, ptr noundef %71)
  %72 = load ptr, ptr %2, align 8, !tbaa !3
  %73 = getelementptr inbounds nuw %struct.BrotliDecoderStateStruct, ptr %72, i32 0, i32 25
  %74 = getelementptr inbounds nuw %struct.HuffmanTreeGroup, ptr %73, i32 0, i32 0
  store ptr null, ptr %74, align 8, !tbaa !49
  ret void
}