; Function Attrs: nounwind uwtable
define hidden void @BrotliDecoderStateCleanupAfterMetablock(ptr noundef captures(none) %0) local_unnamed_addr #0 {
  %2 = getelementptr inbounds nuw i8, ptr %0, i64 56
  %3 = load ptr, ptr %2, align 8, !tbaa !16
  %4 = getelementptr inbounds nuw i8, ptr %0, i64 64
  %5 = load ptr, ptr %4, align 8, !tbaa !17
  %6 = getelementptr inbounds nuw i8, ptr %0, i64 792
  %7 = load ptr, ptr %6, align 8, !tbaa !36
  tail call void %3(ptr noundef %5, ptr noundef %7) #4
  store ptr null, ptr %6, align 8, !tbaa !36
  %8 = load ptr, ptr %2, align 8, !tbaa !16
  %9 = load ptr, ptr %4, align 8, !tbaa !17
  %10 = getelementptr inbounds nuw i8, ptr %0, i64 784
  %11 = load ptr, ptr %10, align 8, !tbaa !37
  tail call void %8(ptr noundef %9, ptr noundef %11) #4
  store ptr null, ptr %10, align 8, !tbaa !37
  %12 = load ptr, ptr %2, align 8, !tbaa !16
  %13 = load ptr, ptr %4, align 8, !tbaa !17
  %14 = getelementptr inbounds nuw i8, ptr %0, i64 408
  %15 = load ptr, ptr %14, align 8, !tbaa !26
  tail call void %12(ptr noundef %13, ptr noundef %15) #4
  store ptr null, ptr %14, align 8, !tbaa !26
  %16 = load ptr, ptr %2, align 8, !tbaa !16
  %17 = load ptr, ptr %4, align 8, !tbaa !17
  %18 = getelementptr inbounds nuw i8, ptr %0, i64 184
  %19 = load ptr, ptr %18, align 8, !tbaa !38
  tail call void %16(ptr noundef %17, ptr noundef %19) #4
  store ptr null, ptr %18, align 8, !tbaa !38
  %20 = load ptr, ptr %2, align 8, !tbaa !16
  %21 = load ptr, ptr %4, align 8, !tbaa !17
  %22 = getelementptr inbounds nuw i8, ptr %0, i64 208
  %23 = load ptr, ptr %22, align 8, !tbaa !39
  tail call void %20(ptr noundef %21, ptr noundef %23) #4
  store ptr null, ptr %22, align 8, !tbaa !39
  %24 = load ptr, ptr %2, align 8, !tbaa !16
  %25 = load ptr, ptr %4, align 8, !tbaa !17
  %26 = getelementptr inbounds nuw i8, ptr %0, i64 232
  %27 = load ptr, ptr %26, align 8, !tbaa !40
  tail call void %24(ptr noundef %25, ptr noundef %27) #4
  store ptr null, ptr %26, align 8, !tbaa !40
  ret void
}